; ModuleID = 'source-C-CXX/12/379.cpp'
source_filename = "source-C-CXX/12/379.cpp"
target datalayout = "e-m:e-p270:32:32-p271:32:32-p272:64:64-i64:64-f80:128-n8:16:32:64-S128"
target triple = "x86_64-pc-linux-gnu"

%"class.std::ios_base::Init" = type { i8 }
%"class.std::basic_istream" = type { i32 (...)**, i64, %"class.std::basic_ios" }
%"class.std::basic_ios" = type { %"class.std::ios_base", %"class.std::basic_ostream"*, i8, i8, %"class.std::basic_streambuf"*, %"class.std::ctype"*, %"class.std::num_put"*, %"class.std::num_get"* }
%"class.std::ios_base" = type { i32 (...)**, i64, i64, i32, i32, i32, %"struct.std::ios_base::_Callback_list"*, %"struct.std::ios_base::_Words", [8 x %"struct.std::ios_base::_Words"], i32, %"struct.std::ios_base::_Words"*, %"class.std::locale" }
%"struct.std::ios_base::_Callback_list" = type { %"struct.std::ios_base::_Callback_list"*, void (i32, %"class.std::ios_base"*, i32)*, i32, i32 }
%"struct.std::ios_base::_Words" = type { i8*, i64 }
%"class.std::locale" = type { %"class.std::locale::_Impl"* }
%"class.std::locale::_Impl" = type { i32, %"class.std::locale::facet"**, i64, %"class.std::locale::facet"**, i8** }
%"class.std::locale::facet" = type <{ i32 (...)**, i32, [4 x i8] }>
%"class.std::basic_ostream" = type { i32 (...)**, %"class.std::basic_ios" }
%"class.std::basic_streambuf" = type { i32 (...)**, i8*, i8*, i8*, i8*, i8*, i8*, %"class.std::locale" }
%"class.std::ctype" = type <{ %"class.std::locale::facet.base", [4 x i8], %struct.__locale_struct*, i8, [7 x i8], i32*, i32*, i16*, i8, [256 x i8], [256 x i8], i8, [6 x i8] }>
%"class.std::locale::facet.base" = type <{ i32 (...)**, i32 }>
%struct.__locale_struct = type { [13 x %struct.__locale_data*], i16*, i32*, i32*, [13 x i8*] }
%struct.__locale_data = type opaque
%"class.std::num_put" = type { %"class.std::locale::facet.base", [4 x i8] }
%"class.std::num_get" = type { %"class.std::locale::facet.base", [4 x i8] }

@_ZStL8__ioinit = internal global %"class.std::ios_base::Init" zeroinitializer, align 1
@__dso_handle = external hidden global i8
@_ZSt3cin = external global %"class.std::basic_istream", align 8
@_ZSt4cout = external global %"class.std::basic_ostream", align 8
@.str = private unnamed_addr constant [2 x i8] c" \00", align 1
@llvm.global_ctors = appending global [1 x { i32, void ()*, i8* }] [{ i32, void ()*, i8* } { i32 65535, void ()* @_GLOBAL__sub_I_379.cpp, i8* null }]

declare void @_ZNSt8ios_base4InitC1Ev(%"class.std::ios_base::Init"* nonnull align 1 dereferenceable(1)) unnamed_addr #0

; Function Attrs: nounwind
declare void @_ZNSt8ios_base4InitD1Ev(%"class.std::ios_base::Init"* nonnull align 1 dereferenceable(1)) unnamed_addr #1

; Function Attrs: nofree nounwind
declare i32 @__cxa_atexit(void (i8*)*, i8*, i8*) local_unnamed_addr #2

; Function Attrs: mustprogress norecurse sspstrong uwtable
define dso_local i32 @main() local_unnamed_addr #3 {
  %1 = alloca i32, align 4
  %2 = alloca [20001 x i32], align 16
  %3 = bitcast i32* %1 to i8*
  call void @llvm.lifetime.start.p0i8(i64 4, i8* nonnull %3) #6
  %4 = call nonnull align 8 dereferenceable(16) %"class.std::basic_istream"* @_ZNSirsERi(%"class.std::basic_istream"* nonnull align 8 dereferenceable(16) @_ZSt3cin, i32* nonnull align 4 dereferenceable(4) %1)
  %5 = bitcast [20001 x i32]* %2 to i8*
  call void @llvm.lifetime.start.p0i8(i64 80004, i8* nonnull %5) #6
  %6 = load i32, i32* %1, align 4, !tbaa !5
  %7 = icmp slt i32 %6, 1
  br i1 %7, label %32, label %13

8:                                                ; preds = %13
  %9 = icmp slt i32 %18, 2
  br i1 %9, label %32, label %10

10:                                               ; preds = %8
  %11 = add nuw i32 %18, 1
  %12 = zext i32 %11 to i64
  br label %21

13:                                               ; preds = %0, %13
  %14 = phi i64 [ %17, %13 ], [ 1, %0 ]
  %15 = getelementptr inbounds [20001 x i32], [20001 x i32]* %2, i64 0, i64 %14
  %16 = call nonnull align 8 dereferenceable(16) %"class.std::basic_istream"* @_ZNSirsERi(%"class.std::basic_istream"* nonnull align 8 dereferenceable(16) @_ZSt3cin, i32* nonnull align 4 dereferenceable(4) %15)
  %17 = add nuw nsw i64 %14, 1
  %18 = load i32, i32* %1, align 4, !tbaa !5
  %19 = sext i32 %18 to i64
  %20 = icmp slt i64 %14, %19
  br i1 %20, label %13, label %8, !llvm.loop !9

21:                                               ; preds = %10, %61
  %22 = phi i64 [ 2, %10 ], [ %63, %61 ]
  %23 = phi i32 [ 1, %10 ], [ %62, %61 ]
  %24 = icmp slt i32 %23, 1
  br i1 %24, label %25, label %27

25:                                               ; preds = %21
  %26 = add nsw i32 %23, 1
  br label %51

27:                                               ; preds = %21
  %28 = getelementptr inbounds [20001 x i32], [20001 x i32]* %2, i64 0, i64 %22
  %29 = load i32, i32* %28, align 4, !tbaa !5
  %30 = add nuw i32 %23, 1
  %31 = zext i32 %30 to i64
  br label %41

32:                                               ; preds = %61, %0, %8
  %33 = phi i32 [ 1, %8 ], [ 1, %0 ], [ %62, %61 ]
  %34 = getelementptr inbounds [20001 x i32], [20001 x i32]* %2, i64 0, i64 1
  %35 = load i32, i32* %34, align 4, !tbaa !5
  %36 = call nonnull align 8 dereferenceable(8) %"class.std::basic_ostream"* @_ZNSolsEi(%"class.std::basic_ostream"* nonnull align 8 dereferenceable(8) @_ZSt4cout, i32 %35)
  %37 = icmp slt i32 %33, 2
  br i1 %37, label %65, label %38

38:                                               ; preds = %32
  %39 = add nuw i32 %33, 1
  %40 = zext i32 %39 to i64
  br label %66

41:                                               ; preds = %27, %46
  %42 = phi i64 [ 1, %27 ], [ %47, %46 ]
  %43 = getelementptr inbounds [20001 x i32], [20001 x i32]* %2, i64 0, i64 %42
  %44 = load i32, i32* %43, align 4, !tbaa !5
  %45 = icmp eq i32 %29, %44
  br i1 %45, label %49, label %46

46:                                               ; preds = %41
  %47 = add nuw nsw i64 %42, 1
  %48 = icmp eq i64 %47, %31
  br i1 %48, label %55, label %41, !llvm.loop !11

49:                                               ; preds = %41
  %50 = trunc i64 %42 to i32
  br label %51

51:                                               ; preds = %49, %25
  %52 = phi i32 [ %26, %25 ], [ %30, %49 ]
  %53 = phi i32 [ 1, %25 ], [ %50, %49 ]
  %54 = icmp eq i32 %53, %52
  br i1 %54, label %55, label %61

55:                                               ; preds = %46, %51
  %56 = phi i32 [ %52, %51 ], [ %30, %46 ]
  %57 = getelementptr inbounds [20001 x i32], [20001 x i32]* %2, i64 0, i64 %22
  %58 = load i32, i32* %57, align 4, !tbaa !5
  %59 = sext i32 %56 to i64
  %60 = getelementptr inbounds [20001 x i32], [20001 x i32]* %2, i64 0, i64 %59
  store i32 %58, i32* %60, align 4, !tbaa !5
  br label %61

61:                                               ; preds = %51, %55
  %62 = phi i32 [ %56, %55 ], [ %23, %51 ]
  %63 = add nuw nsw i64 %22, 1
  %64 = icmp eq i64 %63, %12
  br i1 %64, label %32, label %21, !llvm.loop !12

65:                                               ; preds = %66, %32
  call void @llvm.lifetime.end.p0i8(i64 80004, i8* nonnull %5) #6
  call void @llvm.lifetime.end.p0i8(i64 4, i8* nonnull %3) #6
  ret i32 0

66:                                               ; preds = %38, %66
  %67 = phi i64 [ 2, %38 ], [ %72, %66 ]
  %68 = call nonnull align 8 dereferenceable(8) %"class.std::basic_ostream"* @_ZSt16__ostream_insertIcSt11char_traitsIcEERSt13basic_ostreamIT_T0_ES6_PKS3_l(%"class.std::basic_ostream"* nonnull align 8 dereferenceable(8) @_ZSt4cout, i8* nonnull getelementptr inbounds ([2 x i8], [2 x i8]* @.str, i64 0, i64 0), i64 1)
  %69 = getelementptr inbounds [20001 x i32], [20001 x i32]* %2, i64 0, i64 %67
  %70 = load i32, i32* %69, align 4, !tbaa !5
  %71 = call nonnull align 8 dereferenceable(8) %"class.std::basic_ostream"* @_ZNSolsEi(%"class.std::basic_ostream"* nonnull align 8 dereferenceable(8) @_ZSt4cout, i32 %70)
  %72 = add nuw nsw i64 %67, 1
  %73 = icmp eq i64 %72, %40
  br i1 %73, label %65, label %66, !llvm.loop !13
}

; Function Attrs: argmemonly mustprogress nofree nosync nounwind willreturn
declare void @llvm.lifetime.start.p0i8(i64 immarg, i8* nocapture) #4

declare nonnull align 8 dereferenceable(16) %"class.std::basic_istream"* @_ZNSirsERi(%"class.std::basic_istream"* nonnull align 8 dereferenceable(16), i32* nonnull align 4 dereferenceable(4)) local_unnamed_addr #0

; Function Attrs: argmemonly mustprogress nofree nosync nounwind willreturn
declare void @llvm.lifetime.end.p0i8(i64 immarg, i8* nocapture) #4

declare nonnull align 8 dereferenceable(8) %"class.std::basic_ostream"* @_ZNSolsEi(%"class.std::basic_ostream"* nonnull align 8 dereferenceable(8), i32) local_unnamed_addr #0

declare nonnull align 8 dereferenceable(8) %"class.std::basic_ostream"* @_ZSt16__ostream_insertIcSt11char_traitsIcEERSt13basic_ostreamIT_T0_ES6_PKS3_l(%"class.std::basic_ostream"* nonnull align 8 dereferenceable(8), i8*, i64) local_unnamed_addr #0

; Function Attrs: sspstrong uwtable
define internal void @_GLOBAL__sub_I_379.cpp() #5 section ".text.startup" {
  tail call void @_ZNSt8ios_base4InitC1Ev(%"class.std::ios_base::Init"* nonnull align 1 dereferenceable(1) @_ZStL8__ioinit)
  %1 = tail call i32 @__cxa_atexit(void (i8*)* bitcast (void (%"class.std::ios_base::Init"*)* @_ZNSt8ios_base4InitD1Ev to void (i8*)*), i8* getelementptr inbounds (%"class.std::ios_base::Init", %"class.std::ios_base::Init"* @_ZStL8__ioinit, i64 0, i32 0), i8* nonnull @__dso_handle) #6
  ret void
}


!llvm.module.flags = !{!0, !1, !2, !3}
!llvm.ident = !{!4}

!0 = !{i32 1, !"wchar_size", i32 4}
!1 = !{i32 7, !"PIC Level", i32 2}
!2 = !{i32 7, !"PIE Level", i32 2}
!3 = !{i32 7, !"uwtable", i32 1}
!4 = !{!"clang version 13.0.0"}
!5 = !{!6, !6, i64 0}
!6 = !{!"int", !7, i64 0}
!7 = !{!"omnipotent char", !8, i64 0}
!8 = !{!"Simple C++ TBAA"}
!9 = distinct !{!9, !10}
!10 = !{!"llvm.loop.mustprogress"}
!11 = distinct !{!11, !10}
!12 = distinct !{!12, !10}
!13 = distinct !{!13, !10}
